target datalayout = "e-m:e-p270:32:32-p271:32:32-p272:64:64-i64:64-i128:128-f80:128-n8:16:32:64-S128"
target triple = "x86_64-pc-linux-gnu"

%struct.evp_pkey_st = type { i32, i32, ptr, ptr, ptr, %union.legacy_pkey_st, %union.legacy_pkey_st, %struct.CRYPTO_REF_COUNT, ptr, ptr, i32, i8, %struct.crypto_ex_data_st, ptr, ptr, i64, ptr, i64, %struct.anon }
%union.legacy_pkey_st = type { ptr }
%struct.CRYPTO_REF_COUNT = type { i32 }
%struct.crypto_ex_data_st = type { ptr, ptr }
%struct.anon = type { i32, i32, i32 }

@testctx = internal global ptr null, align 8
@.str.30 = private unnamed_addr constant [32 x i8] c"../openssl/test/endecode_test.c\00", align 1
@testpropq = internal global ptr null, align 8
@.str.316 = private unnamed_addr constant [6 x i8] c"p8inf\00", align 1
@.str.317 = private unnamed_addr constant [5 x i8] c"pkey\00", align 1
@.str.318 = private unnamed_addr constant [26 x i8] c"EVP_PKEY_is_a(pkey, type)\00", align 1
@.str.319 = private unnamed_addr constant [19 x i8] c"%s isn't any of %s\00", align 1
@.str.320 = private unnamed_addr constant [27 x i8] c"evp_pkey_is_provided(pkey)\00", align 1

; Function Attrs: nounwind uwtable
define internal i32 @check_unprotected_PKCS8_DER(ptr noundef %0, i32 noundef %1, ptr noundef %2, ptr noundef %3, i64 noundef %4) #0 {
  %6 = alloca ptr, align 8
  %7 = alloca i32, align 4
  %8 = alloca ptr, align 8
  %9 = alloca ptr, align 8
  %10 = alloca i64, align 8
  %11 = alloca ptr, align 8
  %12 = alloca ptr, align 8
  %13 = alloca i32, align 4
  %14 = alloca ptr, align 8
  %15 = alloca ptr, align 8
  store ptr %0, ptr %6, align 8, !tbaa !4
  store i32 %1, ptr %7, align 4, !tbaa !9
  store ptr %2, ptr %8, align 8, !tbaa !4
  store ptr %3, ptr %9, align 8, !tbaa !31
  store i64 %4, ptr %10, align 8, !tbaa !27
  call void @llvm.lifetime.start.p0(i64 8, ptr %11) #7
  %16 = load ptr, ptr %9, align 8, !tbaa !31
  store ptr %16, ptr %11, align 8, !tbaa !4
  call void @llvm.lifetime.start.p0(i64 8, ptr %12) #7
  %17 = load i64, ptr %10, align 8, !tbaa !27
  %18 = call ptr @d2i_PKCS8_PRIV_KEY_INFO(ptr noundef null, ptr noundef %11, i64 noundef %17)
  store ptr %18, ptr %12, align 8, !tbaa !46
  call void @llvm.lifetime.start.p0(i64 4, ptr %13) #7
  store i32 0, ptr %13, align 4, !tbaa !9
  %19 = load ptr, ptr %6, align 8, !tbaa !4
  %20 = load i32, ptr %7, align 4, !tbaa !9
  %21 = load ptr, ptr %12, align 8, !tbaa !46
  %22 = call i32 @test_ptr(ptr noundef %19, i32 noundef %20, ptr noundef @.str.316, ptr noundef %21)
  %23 = icmp ne i32 %22, 0
  br i1 %23, label %24, label %74

24:                                               ; preds = %5
  call void @llvm.lifetime.start.p0(i64 8, ptr %14) #7
  %25 = load ptr, ptr %12, align 8, !tbaa !46
  %26 = load ptr, ptr @testctx, align 8, !tbaa !13
  %27 = load ptr, ptr @testpropq, align 8, !tbaa !4
  %28 = call ptr @EVP_PKCS82PKEY_ex(ptr noundef %25, ptr noundef %26, ptr noundef %27)
  store ptr %28, ptr %14, align 8, !tbaa !23
  call void @llvm.lifetime.start.p0(i64 8, ptr %15) #7
  store ptr null, ptr %15, align 8, !tbaa !4
  %29 = load ptr, ptr %6, align 8, !tbaa !4
  %30 = load i32, ptr %7, align 4, !tbaa !9
  %31 = load ptr, ptr %14, align 8, !tbaa !23
  %32 = call i32 @test_ptr(ptr noundef %29, i32 noundef %30, ptr noundef @.str.317, ptr noundef %31)
  %33 = icmp ne i32 %32, 0
  br i1 %33, label %34, label %73

34:                                               ; preds = %24
  %35 = load ptr, ptr %6, align 8, !tbaa !4
  %36 = load i32, ptr %7, align 4, !tbaa !9
  %37 = load ptr, ptr %14, align 8, !tbaa !23
  %38 = load ptr, ptr %8, align 8, !tbaa !4
  %39 = call i32 @EVP_PKEY_is_a(ptr noundef %37, ptr noundef %38)
  %40 = icmp ne i32 %39, 0
  %41 = zext i1 %40 to i32
  %42 = call i32 @test_true(ptr noundef %35, i32 noundef %36, ptr noundef @.str.318, i32 noundef %41)
  store i32 %42, ptr %13, align 4, !tbaa !9
  %43 = icmp ne i32 %42, 0
  br i1 %43, label %54, label %44

44:                                               ; preds = %34
  %45 = load ptr, ptr %14, align 8, !tbaa !23
  %46 = call i32 @EVP_PKEY_type_names_do_all(ptr noundef %45, ptr noundef @collect_name, ptr noundef %15)
  %47 = load ptr, ptr %15, align 8, !tbaa !4
  %48 = icmp ne ptr %47, null
  br i1 %48, label %49, label %52

49:                                               ; preds = %44
  %50 = load ptr, ptr %8, align 8, !tbaa !4
  %51 = load ptr, ptr %15, align 8, !tbaa !4
  call void (ptr, ...) @test_note(ptr noundef @.str.319, ptr noundef %50, ptr noundef %51)
  br label %52

52:                                               ; preds = %49, %44
  %53 = load ptr, ptr %15, align 8, !tbaa !4
  call void @CRYPTO_free(ptr noundef %53, ptr noundef @.str.30, i32 noundef 548)
  br label %54

54:                                               ; preds = %52, %34
  %55 = load i32, ptr %13, align 4, !tbaa !9
  %56 = icmp ne i32 %55, 0
  br i1 %56, label %57, label %69

57:                                               ; preds = %54
  %58 = load ptr, ptr %6, align 8, !tbaa !4
  %59 = load i32, ptr %7, align 4, !tbaa !9
  %60 = load ptr, ptr %14, align 8, !tbaa !23
  %61 = getelementptr inbounds nuw %struct.evp_pkey_st, ptr %60, i32 0, i32 13
  %62 = load ptr, ptr %61, align 8, !tbaa !48
  %63 = icmp ne ptr %62, null
  %64 = zext i1 %63 to i32
  %65 = icmp ne i32 %64, 0
  %66 = zext i1 %65 to i32
  %67 = call i32 @test_true(ptr noundef %58, i32 noundef %59, ptr noundef @.str.320, i32 noundef %66)
  %68 = icmp ne i32 %67, 0
  br label %69

69:                                               ; preds = %57, %54
  %70 = phi i1 [ false, %54 ], [ %68, %57 ]
  %71 = zext i1 %70 to i32
  store i32 %71, ptr %13, align 4, !tbaa !9
  %72 = load ptr, ptr %14, align 8, !tbaa !23
  call void @EVP_PKEY_free(ptr noundef %72)
  br label %73

73:                                               ; preds = %69, %24
  call void @llvm.lifetime.end.p0(i64 8, ptr %15) #7
  call void @llvm.lifetime.end.p0(i64 8, ptr %14) #7
  br label %74

74:                                               ; preds = %73, %5
  %75 = load ptr, ptr %12, align 8, !tbaa !46
  call void @PKCS8_PRIV_KEY_INFO_free(ptr noundef %75)
  %76 = load i32, ptr %13, align 4, !tbaa !9
  call void @llvm.lifetime.end.p0(i64 4, ptr %13) #7
  call void @llvm.lifetime.end.p0(i64 8, ptr %12) #7
  call void @llvm.lifetime.end.p0(i64 8, ptr %11) #7
  ret i32 %76
}