; Function Attrs: nounwind uwtable
define internal range(i32 0, 2) i32 @check_unprotected_PKCS8_DER(ptr noundef %0, i32 noundef %1, ptr noundef %2, ptr noundef %3, i64 noundef %4) #1 {
  %6 = alloca ptr, align 8
  %7 = alloca ptr, align 8
  call void @llvm.lifetime.start.p0(i64 8, ptr nonnull %6) #8
  store ptr %3, ptr %6, align 8, !tbaa !36
  %8 = call ptr @d2i_PKCS8_PRIV_KEY_INFO(ptr noundef null, ptr noundef nonnull %6, i64 noundef %4) #8
  %9 = call i32 @test_ptr(ptr noundef %0, i32 noundef %1, ptr noundef nonnull @.str.316, ptr noundef %8) #8
  %.not = icmp eq i32 %9, 0
  br i1 %.not, label %35, label %10

10:                                               ; preds = %5
  %11 = load ptr, ptr @testctx, align 8, !tbaa !10
  %12 = call ptr @EVP_PKCS82PKEY_ex(ptr noundef %8, ptr noundef %11, ptr noundef null) #8
  call void @llvm.lifetime.start.p0(i64 8, ptr nonnull %7) #8
  store ptr null, ptr %7, align 8, !tbaa !36
  %13 = call i32 @test_ptr(ptr noundef %0, i32 noundef %1, ptr noundef nonnull @.str.317, ptr noundef %12) #8
  %.not22 = icmp eq i32 %13, 0
  br i1 %.not22, label %34, label %14

14:                                               ; preds = %10
  %15 = call i32 @EVP_PKEY_is_a(ptr noundef %12, ptr noundef %2) #8
  %16 = icmp ne i32 %15, 0
  %17 = zext i1 %16 to i32
  %18 = call i32 @test_true(ptr noundef %0, i32 noundef %1, ptr noundef nonnull @.str.318, i32 noundef %17) #8
  %.not23 = icmp eq i32 %18, 0
  br i1 %.not23, label %19, label %.critedge

19:                                               ; preds = %14
  %20 = call i32 @EVP_PKEY_type_names_do_all(ptr noundef %12, ptr noundef nonnull @collect_name, ptr noundef nonnull %7) #8
  %21 = load ptr, ptr %7, align 8, !tbaa !36
  %.not24 = icmp eq ptr %21, null
  br i1 %.not24, label %23, label %22

22:                                               ; preds = %19
  call void (ptr, ...) @test_note(ptr noundef nonnull @.str.319, ptr noundef %2, ptr noundef nonnull %21) #8
  %.pre = load ptr, ptr %7, align 8, !tbaa !36
  br label %23

23:                                               ; preds = %22, %19
  %24 = phi ptr [ %.pre, %22 ], [ null, %19 ]
  call void @CRYPTO_free(ptr noundef %24, ptr noundef nonnull @.str.30, i32 noundef 548) #8
  br label %32

.critedge:                                        ; preds = %14
  %25 = getelementptr inbounds nuw i8, ptr %12, i64 96
  %26 = load ptr, ptr %25, align 8, !tbaa !37
  %27 = icmp ne ptr %26, null
  %28 = zext i1 %27 to i32
  %29 = call i32 @test_true(ptr noundef %0, i32 noundef %1, ptr noundef nonnull @.str.320, i32 noundef %28) #8
  %30 = icmp ne i32 %29, 0
  %31 = zext i1 %30 to i32
  br label %32

32:                                               ; preds = %23, %.critedge
  %33 = phi i32 [ 0, %23 ], [ %31, %.critedge ]
  call void @EVP_PKEY_free(ptr noundef %12) #8
  br label %34

34:                                               ; preds = %32, %10
  %.1 = phi i32 [ %33, %32 ], [ 0, %10 ]
  call void @llvm.lifetime.end.p0(i64 8, ptr nonnull %7) #8
  br label %35

35:                                               ; preds = %34, %5
  %.0 = phi i32 [ %.1, %34 ], [ 0, %5 ]
  call void @PKCS8_PRIV_KEY_INFO_free(ptr noundef %8) #8
  call void @llvm.lifetime.end.p0(i64 8, ptr nonnull %6) #8
  ret i32 %.0
}